target datalayout = "e-m:e-p270:32:32-p271:32:32-p272:64:64-i64:64-i128:128-f80:128-n8:16:32:64-S128"
target triple = "x86_64-pc-linux-gnu"

%struct.Rpo_TtStore_t_ = type { i32, i32, i32, ptr }
%struct.Literal_t_ = type { ptr, ptr, ptr }
%struct.Vec_Str_t_ = type { i32, i32, ptr }

@.str = private unnamed_addr constant [5 x i8] c"%d: \00", align 1
@.str.1 = private unnamed_addr constant [15 x i8] c"Solution : %s\0A\00", align 1
@.str.2 = private unnamed_addr constant [3 x i8] c"\0A\0A\00", align 1
@.str.3 = private unnamed_addr constant [6 x i8] c"null\0A\00", align 1
@.str.4 = private unnamed_addr constant [39 x i8] c"%d of %d (%.2f %%) functions are RPO.\0A\00", align 1
@.str.5 = private unnamed_addr constant [5 x i8] c"Time\00", align 1
@.str.10 = private unnamed_addr constant [5 x i8] c"%s =\00", align 1
@.str.11 = private unnamed_addr constant [11 x i8] c"%9.2f sec\0A\00", align 1

; Function Attrs: inlinehint nounwind uwtable
define internal void @Vec_StrFree(ptr noundef %0) #3 {
  %2 = alloca ptr, align 8
  store ptr %0, ptr %2, align 8, !tbaa !39
  %3 = load ptr, ptr %2, align 8, !tbaa !39
  %4 = getelementptr inbounds nuw %struct.Vec_Str_t_, ptr %3, i32 0, i32 2
  %5 = load ptr, ptr %4, align 8, !tbaa !25
  %6 = icmp ne ptr %5, null
  br i1 %6, label %7, label %13

7:                                                ; preds = %1
  %8 = load ptr, ptr %2, align 8, !tbaa !39
  %9 = getelementptr inbounds nuw %struct.Vec_Str_t_, ptr %8, i32 0, i32 2
  %10 = load ptr, ptr %9, align 8, !tbaa !25
  call void @free(ptr noundef %10) #9
  %11 = load ptr, ptr %2, align 8, !tbaa !39
  %12 = getelementptr inbounds nuw %struct.Vec_Str_t_, ptr %11, i32 0, i32 2
  store ptr null, ptr %12, align 8, !tbaa !25
  br label %14

13:                                               ; preds = %1
  br label %14

14:                                               ; preds = %13, %7
  %15 = load ptr, ptr %2, align 8, !tbaa !39
  %16 = icmp ne ptr %15, null
  br i1 %16, label %17, label %19

17:                                               ; preds = %14
  %18 = load ptr, ptr %2, align 8, !tbaa !39
  call void @free(ptr noundef %18) #9
  store ptr null, ptr %2, align 8, !tbaa !39
  br label %20

19:                                               ; preds = %14
  br label %20

20:                                               ; preds = %19, %17
  ret void
}

; Function Attrs: inlinehint nounwind uwtable
define internal void @Abc_PrintTime(i32 noundef %0, ptr noundef %1, i64 noundef %2) #3 {
  %4 = alloca i32, align 4
  %5 = alloca ptr, align 8
  %6 = alloca i64, align 8
  store i32 %0, ptr %4, align 4, !tbaa !8
  store ptr %1, ptr %5, align 8, !tbaa !32
  store i64 %2, ptr %6, align 8, !tbaa !10
  %7 = load ptr, ptr %5, align 8, !tbaa !32
  call void (i32, ptr, ...) @Abc_Print(i32 noundef 1, ptr noundef @.str.10, ptr noundef %7)
  %8 = load i64, ptr %6, align 8, !tbaa !10
  %9 = sitofp i64 %8 to double
  %10 = fmul double 1.000000e+00, %9
  %11 = fdiv double %10, 1.000000e+06
  call void (i32, ptr, ...) @Abc_Print(i32 noundef 1, ptr noundef @.str.11, double noundef %11)
  ret void
}

; Function Attrs: inlinehint nounwind uwtable
define internal void @Lit_Free(ptr noundef %0) #3 {
  %2 = alloca ptr, align 8
  store ptr %0, ptr %2, align 8, !tbaa !19
  %3 = load ptr, ptr %2, align 8, !tbaa !19
  %4 = icmp eq ptr %3, null
  br i1 %4, label %5, label %6

5:                                                ; preds = %1
  br label %40

6:                                                ; preds = %1
  %7 = load ptr, ptr %2, align 8, !tbaa !19
  %8 = getelementptr inbounds nuw %struct.Literal_t_, ptr %7, i32 0, i32 1
  %9 = load ptr, ptr %8, align 8, !tbaa !35
  %10 = icmp ne ptr %9, null
  br i1 %10, label %11, label %17

11:                                               ; preds = %6
  %12 = load ptr, ptr %2, align 8, !tbaa !19
  %13 = getelementptr inbounds nuw %struct.Literal_t_, ptr %12, i32 0, i32 1
  %14 = load ptr, ptr %13, align 8, !tbaa !35
  call void @free(ptr noundef %14) #9
  %15 = load ptr, ptr %2, align 8, !tbaa !19
  %16 = getelementptr inbounds nuw %struct.Literal_t_, ptr %15, i32 0, i32 1
  store ptr null, ptr %16, align 8, !tbaa !35
  br label %18

17:                                               ; preds = %6
  br label %18

18:                                               ; preds = %17, %11
  %19 = load ptr, ptr %2, align 8, !tbaa !19
  %20 = getelementptr inbounds nuw %struct.Literal_t_, ptr %19, i32 0, i32 0
  %21 = load ptr, ptr %20, align 8, !tbaa !36
  %22 = icmp ne ptr %21, null
  br i1 %22, label %23, label %29

23:                                               ; preds = %18
  %24 = load ptr, ptr %2, align 8, !tbaa !19
  %25 = getelementptr inbounds nuw %struct.Literal_t_, ptr %24, i32 0, i32 0
  %26 = load ptr, ptr %25, align 8, !tbaa !36
  call void @free(ptr noundef %26) #9
  %27 = load ptr, ptr %2, align 8, !tbaa !19
  %28 = getelementptr inbounds nuw %struct.Literal_t_, ptr %27, i32 0, i32 0
  store ptr null, ptr %28, align 8, !tbaa !36
  br label %30

29:                                               ; preds = %18
  br label %30

30:                                               ; preds = %29, %23
  %31 = load ptr, ptr %2, align 8, !tbaa !19
  %32 = getelementptr inbounds nuw %struct.Literal_t_, ptr %31, i32 0, i32 2
  %33 = load ptr, ptr %32, align 8, !tbaa !21
  call void @Vec_StrFree(ptr noundef %33)
  %34 = load ptr, ptr %2, align 8, !tbaa !19
  %35 = icmp ne ptr %34, null
  br i1 %35, label %36, label %38

36:                                               ; preds = %30
  %37 = load ptr, ptr %2, align 8, !tbaa !19
  call void @free(ptr noundef %37) #9
  store ptr null, ptr %2, align 8, !tbaa !19
  br label %39

38:                                               ; preds = %30
  br label %39

39:                                               ; preds = %38, %36
  br label %40

40:                                               ; preds = %39, %5
  ret void
}

; Function Attrs: nounwind uwtable
define void @Abc_TruthRpoPerform(ptr noundef %0, i32 noundef %1, i32 noundef %2) #0 {
  %4 = alloca ptr, align 8
  %5 = alloca i32, align 4
  %6 = alloca i32, align 4
  %7 = alloca i64, align 8
  %8 = alloca i32, align 4
  %9 = alloca i32, align 4
  %10 = alloca ptr, align 8
  %11 = alloca float, align 4
  store ptr %0, ptr %4, align 8, !tbaa !3
  store i32 %1, ptr %5, align 4, !tbaa !8
  store i32 %2, ptr %6, align 4, !tbaa !8
  call void @llvm.lifetime.start.p0(i64 8, ptr %7) #9
  %12 = call i64 @clock() #9
  store i64 %12, ptr %7, align 8, !tbaa !10
  call void @llvm.lifetime.start.p0(i64 4, ptr %8) #9
  call void @llvm.lifetime.start.p0(i64 4, ptr %9) #9
  store i32 0, ptr %9, align 4, !tbaa !8
  call void @llvm.lifetime.start.p0(i64 8, ptr %10) #9
  call void @llvm.lifetime.start.p0(i64 4, ptr %11) #9
  store i32 0, ptr %8, align 4, !tbaa !8
  br label %13

13:                                               ; preds = %60, %3
  %14 = load i32, ptr %8, align 4, !tbaa !8
  %15 = load ptr, ptr %4, align 8, !tbaa !3
  %16 = getelementptr inbounds nuw %struct.Rpo_TtStore_t_, ptr %15, i32 0, i32 2
  %17 = load i32, ptr %16, align 8, !tbaa !12
  %18 = icmp slt i32 %14, %17
  br i1 %18, label %19, label %63

19:                                               ; preds = %13
  %20 = load i32, ptr %6, align 4, !tbaa !8
  %21 = icmp ne i32 %20, 0
  br i1 %21, label %22, label %25

22:                                               ; preds = %19
  %23 = load i32, ptr %8, align 4, !tbaa !8
  %24 = add nsw i32 %23, 1
  call void (i32, ptr, ...) @Abc_Print(i32 noundef -2, ptr noundef @.str, i32 noundef %24)
  br label %25

25:                                               ; preds = %22, %19
  %26 = load ptr, ptr %4, align 8, !tbaa !3
  %27 = getelementptr inbounds nuw %struct.Rpo_TtStore_t_, ptr %26, i32 0, i32 3
  %28 = load ptr, ptr %27, align 8, !tbaa !15
  %29 = load i32, ptr %8, align 4, !tbaa !8
  %30 = sext i32 %29 to i64
  %31 = getelementptr inbounds ptr, ptr %28, i64 %30
  %32 = load ptr, ptr %31, align 8, !tbaa !16
  %33 = load ptr, ptr %4, align 8, !tbaa !3
  %34 = getelementptr inbounds nuw %struct.Rpo_TtStore_t_, ptr %33, i32 0, i32 0
  %35 = load i32, ptr %34, align 8, !tbaa !18
  %36 = load i32, ptr %5, align 4, !tbaa !8
  %37 = load i32, ptr %6, align 4, !tbaa !8
  %38 = call ptr @Rpo_Factorize(ptr noundef %32, i32 noundef %35, i32 noundef %36, i32 noundef %37)
  store ptr %38, ptr %10, align 8, !tbaa !19
  %39 = load ptr, ptr %10, align 8, !tbaa !19
  %40 = icmp ne ptr %39, null
  br i1 %40, label %41, label %54

41:                                               ; preds = %25
  %42 = load i32, ptr %6, align 4, !tbaa !8
  %43 = icmp ne i32 %42, 0
  br i1 %43, label %44, label %50

44:                                               ; preds = %41
  %45 = load ptr, ptr %10, align 8, !tbaa !19
  %46 = getelementptr inbounds nuw %struct.Literal_t_, ptr %45, i32 0, i32 2
  %47 = load ptr, ptr %46, align 8, !tbaa !21
  %48 = getelementptr inbounds nuw %struct.Vec_Str_t_, ptr %47, i32 0, i32 2
  %49 = load ptr, ptr %48, align 8, !tbaa !25
  call void (i32, ptr, ...) @Abc_Print(i32 noundef -2, ptr noundef @.str.1, ptr noundef %49)
  call void (i32, ptr, ...) @Abc_Print(i32 noundef -2, ptr noundef @.str.2)
  br label %50

50:                                               ; preds = %44, %41
  %51 = load ptr, ptr %10, align 8, !tbaa !19
  call void @Lit_Free(ptr noundef %51)
  %52 = load i32, ptr %9, align 4, !tbaa !8
  %53 = add nsw i32 %52, 1
  store i32 %53, ptr %9, align 4, !tbaa !8
  br label %59

54:                                               ; preds = %25
  %55 = load i32, ptr %6, align 4, !tbaa !8
  %56 = icmp ne i32 %55, 0
  br i1 %56, label %57, label %58

57:                                               ; preds = %54
  call void (i32, ptr, ...) @Abc_Print(i32 noundef -2, ptr noundef @.str.3)
  call void (i32, ptr, ...) @Abc_Print(i32 noundef -2, ptr noundef @.str.2)
  br label %58

58:                                               ; preds = %57, %54
  br label %59

59:                                               ; preds = %58, %50
  br label %60

60:                                               ; preds = %59
  %61 = load i32, ptr %8, align 4, !tbaa !8
  %62 = add nsw i32 %61, 1
  store i32 %62, ptr %8, align 4, !tbaa !8
  br label %13, !llvm.loop !28

63:                                               ; preds = %13
  %64 = load i32, ptr %9, align 4, !tbaa !8
  %65 = sitofp i32 %64 to double
  %66 = fmul double %65, 1.000000e+02
  %67 = load ptr, ptr %4, align 8, !tbaa !3
  %68 = getelementptr inbounds nuw %struct.Rpo_TtStore_t_, ptr %67, i32 0, i32 2
  %69 = load i32, ptr %68, align 8, !tbaa !12
  %70 = sitofp i32 %69 to double
  %71 = fdiv double %66, %70
  %72 = fptrunc double %71 to float
  store float %72, ptr %11, align 4, !tbaa !30
  %73 = load i32, ptr %9, align 4, !tbaa !8
  %74 = load ptr, ptr %4, align 8, !tbaa !3
  %75 = getelementptr inbounds nuw %struct.Rpo_TtStore_t_, ptr %74, i32 0, i32 2
  %76 = load i32, ptr %75, align 8, !tbaa !12
  %77 = load float, ptr %11, align 4, !tbaa !30
  %78 = fpext float %77 to double
  call void (i32, ptr, ...) @Abc_Print(i32 noundef -2, ptr noundef @.str.4, i32 noundef %73, i32 noundef %76, double noundef %78)
  %79 = call i64 @clock() #9
  %80 = load i64, ptr %7, align 8, !tbaa !10
  %81 = sub nsw i64 %79, %80
  call void @Abc_PrintTime(i32 noundef 1, ptr noundef @.str.5, i64 noundef %81)
  call void @llvm.lifetime.end.p0(i64 4, ptr %11) #9
  call void @llvm.lifetime.end.p0(i64 8, ptr %10) #9
  call void @llvm.lifetime.end.p0(i64 4, ptr %9) #9
  call void @llvm.lifetime.end.p0(i64 4, ptr %8) #9
  call void @llvm.lifetime.end.p0(i64 8, ptr %7) #9
  ret void
}