; Function Attrs: nounwind uwtable
define void @Abc_TruthRpoPerform(ptr noundef readonly captures(none) %0, i32 noundef %1, i32 noundef %2) local_unnamed_addr #0 {
  %4 = tail call i64 @clock() #11
  %5 = getelementptr inbounds nuw i8, ptr %0, i64 8
  %6 = load i32, ptr %5, align 8, !tbaa !3
  %7 = icmp sgt i32 %6, 0
  br i1 %7, label %.lr.ph, label %._crit_edge

.lr.ph:                                           ; preds = %3
  %.not = icmp eq i32 %2, 0
  %8 = getelementptr inbounds nuw i8, ptr %0, i64 16
  br label %9

9:                                                ; preds = %.lr.ph, %41
  %indvars.iv = phi i64 [ 0, %.lr.ph ], [ %indvars.iv.next, %41 ]
  %.02125 = phi i32 [ 0, %.lr.ph ], [ %.1, %41 ]
  br i1 %.not, label %13, label %10

10:                                               ; preds = %9
  %11 = trunc i64 %indvars.iv to i32
  %12 = add i32 %11, 1
  tail call void (i32, ptr, ...) @Abc_Print(i32 noundef -2, ptr noundef nonnull @.str, i32 noundef %12)
  br label %13

13:                                               ; preds = %10, %9
  %14 = load ptr, ptr %8, align 8, !tbaa !10
  %15 = getelementptr inbounds nuw ptr, ptr %14, i64 %indvars.iv
  %16 = load ptr, ptr %15, align 8, !tbaa !11
  %17 = load i32, ptr %0, align 8, !tbaa !13
  %18 = tail call ptr @Rpo_Factorize(ptr noundef %16, i32 noundef %17, i32 noundef %1, i32 noundef %2) #11
  %.not24 = icmp eq ptr %18, null
  br i1 %.not24, label %39, label %19

19:                                               ; preds = %13
  br i1 %.not, label %25, label %20

20:                                               ; preds = %19
  %21 = getelementptr inbounds nuw i8, ptr %18, i64 16
  %22 = load ptr, ptr %21, align 8, !tbaa !14
  %23 = getelementptr inbounds nuw i8, ptr %22, i64 8
  %24 = load ptr, ptr %23, align 8, !tbaa !18
  tail call void (i32, ptr, ...) @Abc_Print(i32 noundef -2, ptr noundef nonnull @.str.1, ptr noundef %24)
  tail call void (i32, ptr, ...) @Abc_Print(i32 noundef -2, ptr noundef nonnull @.str.2)
  br label %25

25:                                               ; preds = %20, %19
  %26 = getelementptr inbounds nuw i8, ptr %18, i64 8
  %27 = load ptr, ptr %26, align 8, !tbaa !21
  %.not.i = icmp eq ptr %27, null
  br i1 %.not.i, label %29, label %28

28:                                               ; preds = %25
  tail call void @free(ptr noundef nonnull %27) #11
  store ptr null, ptr %26, align 8, !tbaa !21
  br label %29

29:                                               ; preds = %28, %25
  %30 = load ptr, ptr %18, align 8, !tbaa !22
  %.not12.i = icmp eq ptr %30, null
  br i1 %.not12.i, label %32, label %31

31:                                               ; preds = %29
  tail call void @free(ptr noundef nonnull %30) #11
  store ptr null, ptr %18, align 8, !tbaa !22
  br label %32

32:                                               ; preds = %31, %29
  %33 = getelementptr inbounds nuw i8, ptr %18, i64 16
  %34 = load ptr, ptr %33, align 8, !tbaa !14
  %35 = getelementptr inbounds nuw i8, ptr %34, i64 8
  %36 = load ptr, ptr %35, align 8, !tbaa !18
  %.not.i.i = icmp eq ptr %36, null
  br i1 %.not.i.i, label %Lit_Free.exit, label %37

37:                                               ; preds = %32
  tail call void @free(ptr noundef nonnull %36) #11
  br label %Lit_Free.exit

Lit_Free.exit:                                    ; preds = %32, %37
  tail call void @free(ptr noundef nonnull %34) #11
  tail call void @free(ptr noundef nonnull %18) #11
  %38 = add nsw i32 %.02125, 1
  br label %41

39:                                               ; preds = %13
  br i1 %.not, label %41, label %40

40:                                               ; preds = %39
  tail call void (i32, ptr, ...) @Abc_Print(i32 noundef -2, ptr noundef nonnull @.str.3)
  tail call void (i32, ptr, ...) @Abc_Print(i32 noundef -2, ptr noundef nonnull @.str.2)
  br label %41

41:                                               ; preds = %Lit_Free.exit, %40, %39
  %.1 = phi i32 [ %38, %Lit_Free.exit ], [ %.02125, %40 ], [ %.02125, %39 ]
  %indvars.iv.next = add nuw nsw i64 %indvars.iv, 1
  %42 = load i32, ptr %5, align 8, !tbaa !3
  %43 = sext i32 %42 to i64
  %44 = icmp slt i64 %indvars.iv.next, %43
  br i1 %44, label %9, label %._crit_edge, !llvm.loop !23

._crit_edge:                                      ; preds = %41, %3
  %.021.lcssa = phi i32 [ 0, %3 ], [ %.1, %41 ]
  %.lcssa = phi i32 [ %6, %3 ], [ %42, %41 ]
  %45 = sitofp i32 %.021.lcssa to double
  %46 = fmul double %45, 1.000000e+02
  %47 = sitofp i32 %.lcssa to double
  %48 = fdiv double %46, %47
  %49 = fptrunc double %48 to float
  %50 = fpext float %49 to double
  tail call void (i32, ptr, ...) @Abc_Print(i32 noundef -2, ptr noundef nonnull @.str.4, i32 noundef %.021.lcssa, i32 noundef %.lcssa, double noundef %50)
  %51 = tail call i64 @clock() #11
  %52 = sub nsw i64 %51, %4
  tail call void (i32, ptr, ...) @Abc_Print(i32 noundef 1, ptr noundef nonnull @.str.10, ptr noundef nonnull @.str.5)
  %53 = sitofp i64 %52 to double
  %54 = fdiv double %53, 1.000000e+06
  tail call void (i32, ptr, ...) @Abc_Print(i32 noundef 1, ptr noundef nonnull @.str.11, double noundef %54)
  ret void
}